target datalayout = "e-m:e-p270:32:32-p271:32:32-p272:64:64-i64:64-i128:128-f80:128-n8:16:32:64-S128"
target triple = "x86_64-pc-linux-gnu"

%struct.JSValue = type { %union.JSValueUnion, i64 }
%union.JSValueUnion = type { double }
%struct.timespec = type { i64, i64 }
%union.anon.3 = type { double }

; Function Attrs: nounwind uwtable
define internal { i64, i64 } @__JS_NewFloat64(ptr noundef %0, double noundef %1) #0 {
  %3 = alloca %struct.JSValue, align 8
  %4 = alloca ptr, align 8
  %5 = alloca double, align 8
  store ptr %0, ptr %4, align 8
  store double %1, ptr %5, align 8
  %6 = getelementptr inbounds %struct.JSValue, ptr %3, i32 0, i32 1
  store i64 7, ptr %6, align 8
  %7 = load double, ptr %5, align 8
  %8 = getelementptr inbounds %struct.JSValue, ptr %3, i32 0, i32 0
  store double %7, ptr %8, align 8
  %9 = load { i64, i64 }, ptr %3, align 8
  ret { i64, i64 } %9
}

; Function Attrs: nounwind uwtable
define internal i64 @get_time_ns() #0 {
  %1 = alloca %struct.timespec, align 8
  %2 = call i32 @clock_gettime(i32 noundef 1, ptr noundef %1) #12
  %3 = getelementptr inbounds %struct.timespec, ptr %1, i32 0, i32 0
  %4 = load i64, ptr %3, align 8
  %5 = mul i64 %4, 1000000000
  %6 = getelementptr inbounds %struct.timespec, ptr %1, i32 0, i32 1
  %7 = load i64, ptr %6, align 8
  %8 = add i64 %5, %7
  ret i64 %8
}

; Function Attrs: nounwind uwtable
define internal { i64, i64 } @js_os_now(ptr noundef %0, i64 %1, i64 %2, i32 noundef %3, ptr noundef %4) #0 {
  %6 = alloca %struct.JSValue, align 8
  %7 = alloca ptr, align 8
  %8 = alloca double, align 8
  %9 = alloca i32, align 4
  %10 = alloca %union.anon.3, align 8
  %11 = alloca %union.anon.3, align 8
  %12 = alloca %struct.JSValue, align 8
  %13 = alloca %struct.JSValue, align 8
  %14 = alloca %struct.JSValue, align 8
  %15 = alloca %struct.JSValue, align 8
  %16 = alloca ptr, align 8
  %17 = alloca i32, align 4
  %18 = alloca ptr, align 8
  %19 = getelementptr inbounds { i64, i64 }, ptr %15, i32 0, i32 0
  store i64 %1, ptr %19, align 8
  %20 = getelementptr inbounds { i64, i64 }, ptr %15, i32 0, i32 1
  store i64 %2, ptr %20, align 8
  store ptr %0, ptr %16, align 8
  store i32 %3, ptr %17, align 4
  store ptr %4, ptr %18, align 8
  %21 = load ptr, ptr %16, align 8
  %22 = call i64 @get_time_ns()
  %23 = sitofp i64 %22 to double
  %24 = fdiv double %23, 1.000000e+06
  store ptr %21, ptr %7, align 8
  store double %24, ptr %8, align 8
  %25 = load double, ptr %8, align 8
  store double %25, ptr %10, align 8
  %26 = load double, ptr %8, align 8
  %27 = fptosi double %26 to i32
  store i32 %27, ptr %9, align 4
  %28 = load i32, ptr %9, align 4
  %29 = sitofp i32 %28 to double
  store double %29, ptr %11, align 8
  %30 = load i64, ptr %10, align 8
  %31 = load i64, ptr %11, align 8
  %32 = icmp eq i64 %30, %31
  br i1 %32, label %33, label %36

33:                                               ; preds = %5
  %34 = load i32, ptr %9, align 4
  store i32 %34, ptr %12, align 8
  %35 = getelementptr inbounds %struct.JSValue, ptr %12, i32 0, i32 1
  store i64 0, ptr %35, align 8
  call void @llvm.memcpy.p0.p0.i64(ptr align 8 %6, ptr align 8 %12, i64 16, i1 false)
  br label %43

36:                                               ; preds = %5
  %37 = load ptr, ptr %7, align 8
  %38 = load double, ptr %8, align 8
  %39 = call { i64, i64 } @__JS_NewFloat64(ptr noundef %37, double noundef %38)
  %40 = extractvalue { i64, i64 } %39, 0
  store i64 %40, ptr %13, align 8
  %41 = getelementptr inbounds { i64, i64 }, ptr %13, i32 0, i32 1
  %42 = extractvalue { i64, i64 } %39, 1
  store i64 %42, ptr %41, align 8
  call void @llvm.memcpy.p0.p0.i64(ptr align 8 %6, ptr align 8 %13, i64 16, i1 false)
  br label %43

43:                                               ; preds = %36, %33
  %44 = load { i64, i64 }, ptr %6, align 8
  %45 = getelementptr inbounds { i64, i64 }, ptr %14, i32 0, i32 0
  %46 = extractvalue { i64, i64 } %44, 0
  store i64 %46, ptr %45, align 8
  %47 = getelementptr inbounds { i64, i64 }, ptr %14, i32 0, i32 1
  %48 = extractvalue { i64, i64 } %44, 1
  store i64 %48, ptr %47, align 8
  %49 = load { i64, i64 }, ptr %14, align 8
  ret { i64, i64 } %49
}