; Function Attrs: nounwind uwtable
define internal { i64, i64 } @js_os_now(ptr nocapture readnone %0, i64 %1, i64 %2, i32 %3, ptr nocapture readnone %4) #0 {
  %6 = alloca %struct.timespec, align 8
  call void @llvm.lifetime.start.p0(i64 16, ptr nonnull %6)
  %7 = call i32 @clock_gettime(i32 noundef 1, ptr noundef nonnull %6) #29
  %8 = load i64, ptr %6, align 8
  %9 = mul i64 %8, 1000000000
  %10 = getelementptr inbounds i8, ptr %6, i64 8
  %11 = load i64, ptr %10, align 8
  %12 = add i64 %9, %11
  call void @llvm.lifetime.end.p0(i64 16, ptr nonnull %6)
  %13 = sitofp i64 %12 to double
  %14 = fdiv double %13, 1.000000e+06
  %15 = fptosi double %14 to i32
  %16 = sitofp i32 %15 to double
  %17 = bitcast double %14 to i64
  %18 = bitcast double %16 to i64
  %19 = icmp eq i64 %17, %18
  %.sroa.016.0.extract.trunc = trunc i64 %17 to i32
  %.sroa.3.0.extract.shift = and i64 %17, -4294967296
  %.sroa.016.0 = select i1 %19, i32 %15, i32 %.sroa.016.0.extract.trunc
  %.sroa.3.0 = select i1 %19, i64 0, i64 %.sroa.3.0.extract.shift
  %.sroa.4.0 = select i1 %19, i64 0, i64 7
  %.sroa.016.0.insert.ext = zext i32 %.sroa.016.0 to i64
  %.sroa.016.0.insert.insert = or disjoint i64 %.sroa.3.0, %.sroa.016.0.insert.ext
  %.fca.0.insert14 = insertvalue { i64, i64 } poison, i64 %.sroa.016.0.insert.insert, 0
  %.fca.1.insert15 = insertvalue { i64, i64 } %.fca.0.insert14, i64 %.sroa.4.0, 1
  ret { i64, i64 } %.fca.1.insert15
}